target datalayout = "e-m:e-p270:32:32-p271:32:32-p272:64:64-i64:64-i128:128-f80:128-n8:16:32:64-S128"
target triple = "x86_64-unknown-linux-gnu"

%class.symbol = type { ptr }
%"class.user_solver::solver" = type <{ %"class.euf::th_euf_solver.base", [4 x i8], %"class.user_propagator::callback", ptr, %"class.std::function", %"class.std::function.3", %"class.std::function.5", %"class.std::function", %"class.std::function.7", %"class.std::function.7", %"class.std::function.7", %"class.std::function.9", %"class.std::function.11", ptr, i32, [4 x i8], %class.vector.13, %class.svector.1, %class.vector.14, %class.svector.15, %class.svector.17, %class.svector.1, %"struct.user_solver::solver::stats", i32, i32, [4 x i8] }>
%"class.euf::th_euf_solver.base" = type <{ %"class.euf::th_solver", ptr, %class.ptr_vector, %class.svector.1, i32 }>
%"class.euf::th_solver" = type { %"class.sat::extension", %"class.euf::th_model_builder", %"class.euf::th_decompile", %"class.euf::th_internalizer", ptr }
%"class.sat::extension" = type { ptr, i8, i32, %class.symbol, ptr }
%"class.euf::th_model_builder" = type { ptr }
%"class.euf::th_decompile" = type { ptr }
%"class.euf::th_internalizer" = type { ptr, %class.ptr_vector, %class.svector }
%class.svector = type { %class.vector.0 }
%class.vector.0 = type { ptr }
%class.ptr_vector = type { %class.vector }
%class.vector = type { ptr }
%"class.user_propagator::callback" = type { ptr }
%"class.std::function.3" = type { %"class.std::_Function_base", ptr }
%"class.std::_Function_base" = type { %"union.std::_Any_data", ptr }
%"union.std::_Any_data" = type { %"union.std::_Nocopy_types" }
%"union.std::_Nocopy_types" = type { { i64, i64 } }
%"class.std::function.5" = type { %"class.std::_Function_base", ptr }
%"class.std::function" = type { %"class.std::_Function_base", ptr }
%"class.std::function.7" = type { %"class.std::_Function_base", ptr }
%"class.std::function.9" = type { %"class.std::_Function_base", ptr }
%"class.std::function.11" = type { %"class.std::_Function_base", ptr }
%class.vector.13 = type { ptr }
%class.vector.14 = type { ptr }
%class.svector.15 = type { %class.vector.16 }
%class.vector.16 = type { ptr }
%class.svector.17 = type { %class.vector.18 }
%class.vector.18 = type { ptr }
%class.svector.1 = type { %class.vector.2 }
%class.vector.2 = type { ptr }
%"struct.user_solver::solver::stats" = type { i32 }

; Function Attrs: mustprogress nounwind uwtable
define linkonce_odr hidden noundef zeroext i1 @_ZNKSt14_Function_base8_M_emptyEv(ptr noundef nonnull align 8 dereferenceable(24) %this) #4 comdat align 2 {
entry:
  %this.addr = alloca ptr, align 8
  store ptr %this, ptr %this.addr, align 8
  %this1 = load ptr, ptr %this.addr, align 8
  %_M_manager = getelementptr inbounds %"class.std::_Function_base", ptr %this1, i32 0, i32 1
  %0 = load ptr, ptr %_M_manager, align 8
  %tobool = icmp ne ptr %0, null
  %lnot = xor i1 %tobool, true
  ret i1 %lnot
}

; Function Attrs: mustprogress uwtable
define linkonce_odr hidden void @_ZNKSt8functionIFvPvPN15user_propagator8callbackEEEclES0_S3_(ptr noundef nonnull align 8 dereferenceable(32) %this, ptr noundef %__args, ptr noundef %__args1) #5 comdat align 2 {
entry:
  %this.addr = alloca ptr, align 8
  %__args.addr = alloca ptr, align 8
  %__args.addr2 = alloca ptr, align 8
  store ptr %this, ptr %this.addr, align 8
  store ptr %__args, ptr %__args.addr, align 8
  store ptr %__args1, ptr %__args.addr2, align 8
  %this3 = load ptr, ptr %this.addr, align 8
  %call = call noundef zeroext i1 @_ZNKSt14_Function_base8_M_emptyEv(ptr noundef nonnull align 8 dereferenceable(24) %this3)
  br i1 %call, label %if.then, label %if.end

if.then:                                          ; preds = %entry
  call void @_ZSt25__throw_bad_function_callv() #17
  unreachable

if.end:                                           ; preds = %entry
  %_M_invoker = getelementptr inbounds %"class.std::function", ptr %this3, i32 0, i32 1
  %0 = load ptr, ptr %_M_invoker, align 8
  %_M_functor = getelementptr inbounds %"class.std::_Function_base", ptr %this3, i32 0, i32 0
  call void %0(ptr noundef nonnull align 8 dereferenceable(16) %_M_functor, ptr noundef nonnull align 8 dereferenceable(8) %__args.addr, ptr noundef nonnull align 8 dereferenceable(8) %__args.addr2)
  ret void
}

; Function Attrs: mustprogress nounwind uwtable
define linkonce_odr hidden noundef i32 @_ZNK6vectorIN11user_solver6solver9prop_infoELb1EjE4sizeEv(ptr noundef nonnull align 8 dereferenceable(8) %this) #4 comdat align 2 {
entry:
  %retval = alloca i32, align 4
  %this.addr = alloca ptr, align 8
  store ptr %this, ptr %this.addr, align 8
  %this1 = load ptr, ptr %this.addr, align 8
  %m_data = getelementptr inbounds %class.vector.13, ptr %this1, i32 0, i32 0
  %0 = load ptr, ptr %m_data, align 8
  %cmp = icmp eq ptr %0, null
  br i1 %cmp, label %if.then, label %if.end

if.then:                                          ; preds = %entry
  store i32 0, ptr %retval, align 4
  br label %return

if.end:                                           ; preds = %entry
  %m_data2 = getelementptr inbounds %class.vector.13, ptr %this1, i32 0, i32 0
  %1 = load ptr, ptr %m_data2, align 8
  %arrayidx = getelementptr inbounds i32, ptr %1, i64 -1
  %2 = load i32, ptr %arrayidx, align 4
  store i32 %2, ptr %retval, align 4
  br label %return

return:                                           ; preds = %if.end, %if.then
  %3 = load i32, ptr %retval, align 4
  ret i32 %3
}

; Function Attrs: mustprogress nounwind uwtable
define linkonce_odr hidden noundef zeroext i1 @_ZNKSt8functionIFvPvPN15user_propagator8callbackEEEcvbEv(ptr noundef nonnull align 8 dereferenceable(32) %this) #4 comdat align 2 {
entry:
  %this.addr = alloca ptr, align 8
  store ptr %this, ptr %this.addr, align 8
  %this1 = load ptr, ptr %this.addr, align 8
  %call = call noundef zeroext i1 @_ZNKSt14_Function_base8_M_emptyEv(ptr noundef nonnull align 8 dereferenceable(24) %this1)
  %lnot = xor i1 %call, true
  ret i1 %lnot
}

; Function Attrs: mustprogress uwtable
define hidden noundef i32 @_ZN11user_solver6solver5checkEv(ptr noundef nonnull align 8 dereferenceable(492) %this) unnamed_addr #5 align 2 {
entry:
  %retval = alloca i32, align 4
  %this.addr = alloca ptr, align 8
  %sz = alloca i32, align 4
  store ptr %this, ptr %this.addr, align 8
  %this1 = load ptr, ptr %this.addr, align 8
  %m_final_eh = getelementptr inbounds %"class.user_solver::solver", ptr %this1, i32 0, i32 7
  %call = call noundef zeroext i1 @_ZNKSt8functionIFvPvPN15user_propagator8callbackEEEcvbEv(ptr noundef nonnull align 8 dereferenceable(32) %m_final_eh) #3
  br i1 %call, label %if.end, label %if.then

if.then:                                          ; preds = %entry
  store i32 0, ptr %retval, align 4
  br label %return

if.end:                                           ; preds = %entry
  %m_prop = getelementptr inbounds %"class.user_solver::solver", ptr %this1, i32 0, i32 16
  %call2 = call noundef i32 @_ZNK6vectorIN11user_solver6solver9prop_infoELb1EjE4sizeEv(ptr noundef nonnull align 8 dereferenceable(8) %m_prop)
  store i32 %call2, ptr %sz, align 4
  %m_final_eh3 = getelementptr inbounds %"class.user_solver::solver", ptr %this1, i32 0, i32 7
  %m_user_context = getelementptr inbounds %"class.user_solver::solver", ptr %this1, i32 0, i32 3
  %0 = load ptr, ptr %m_user_context, align 8
  %add.ptr = getelementptr inbounds i8, ptr %this1, i64 112
  call void @_ZNKSt8functionIFvPvPN15user_propagator8callbackEEEclES0_S3_(ptr noundef nonnull align 8 dereferenceable(32) %m_final_eh3, ptr noundef %0, ptr noundef %add.ptr)
  %1 = load i32, ptr %sz, align 4
  %m_prop4 = getelementptr inbounds %"class.user_solver::solver", ptr %this1, i32 0, i32 16
  %call5 = call noundef i32 @_ZNK6vectorIN11user_solver6solver9prop_infoELb1EjE4sizeEv(ptr noundef nonnull align 8 dereferenceable(8) %m_prop4)
  %cmp = icmp eq i32 %1, %call5
  %cond = select i1 %cmp, i32 0, i32 1
  store i32 %cond, ptr %retval, align 4
  br label %return

return:                                           ; preds = %if.end, %if.then
  %2 = load i32, ptr %retval, align 4
  ret i32 %2
}