; Function Attrs: mustprogress uwtable
define hidden noundef i32 @_ZN11user_solver6solver5checkEv(ptr noundef nonnull align 8 dereferenceable(492) %this) unnamed_addr #3 align 2 {
entry:
  %__args.addr.i = alloca ptr, align 8
  %__args.addr2.i = alloca ptr, align 8
  %m_final_eh = getelementptr inbounds i8, ptr %this, i64 224
  %_M_manager.i.i = getelementptr inbounds i8, ptr %this, i64 240
  %0 = load ptr, ptr %_M_manager.i.i, align 8
  %tobool.not.i.i.not = icmp eq ptr %0, null
  br i1 %tobool.not.i.i.not, label %return, label %if.end

if.end:                                           ; preds = %entry
  %m_prop = getelementptr inbounds i8, ptr %this, i64 432
  %1 = load ptr, ptr %m_prop, align 8
  %cmp.i = icmp eq ptr %1, null
  br i1 %cmp.i, label %_ZNKSt8functionIFvPvPN15user_propagator8callbackEEEclES0_S3_.exit, label %if.end.i

if.end.i:                                         ; preds = %if.end
  %arrayidx.i = getelementptr inbounds i8, ptr %1, i64 -4
  %2 = load i32, ptr %arrayidx.i, align 4
  br label %_ZNKSt8functionIFvPvPN15user_propagator8callbackEEEclES0_S3_.exit

_ZNKSt8functionIFvPvPN15user_propagator8callbackEEEclES0_S3_.exit: ; preds = %if.end.i, %if.end
  %retval.0.i = phi i32 [ %2, %if.end.i ], [ 0, %if.end ]
  %m_user_context = getelementptr inbounds i8, ptr %this, i64 120
  %3 = load ptr, ptr %m_user_context, align 8
  %add.ptr = getelementptr inbounds i8, ptr %this, i64 112
  call void @llvm.lifetime.start.p0(i64 8, ptr nonnull %__args.addr.i)
  call void @llvm.lifetime.start.p0(i64 8, ptr nonnull %__args.addr2.i)
  store ptr %3, ptr %__args.addr.i, align 8
  store ptr %add.ptr, ptr %__args.addr2.i, align 8
  %_M_invoker.i = getelementptr inbounds i8, ptr %this, i64 248
  %4 = load ptr, ptr %_M_invoker.i, align 8
  call void %4(ptr noundef nonnull align 8 dereferenceable(16) %m_final_eh, ptr noundef nonnull align 8 dereferenceable(8) %__args.addr.i, ptr noundef nonnull align 8 dereferenceable(8) %__args.addr2.i)
  call void @llvm.lifetime.end.p0(i64 8, ptr nonnull %__args.addr.i)
  call void @llvm.lifetime.end.p0(i64 8, ptr nonnull %__args.addr2.i)
  %5 = load ptr, ptr %m_prop, align 8
  %cmp.i4 = icmp eq ptr %5, null
  br i1 %cmp.i4, label %_ZNK6vectorIN11user_solver6solver9prop_infoELb1EjE4sizeEv.exit8, label %if.end.i5

if.end.i5:                                        ; preds = %_ZNKSt8functionIFvPvPN15user_propagator8callbackEEEclES0_S3_.exit
  %arrayidx.i6 = getelementptr inbounds i8, ptr %5, i64 -4
  %6 = load i32, ptr %arrayidx.i6, align 4
  br label %_ZNK6vectorIN11user_solver6solver9prop_infoELb1EjE4sizeEv.exit8

_ZNK6vectorIN11user_solver6solver9prop_infoELb1EjE4sizeEv.exit8: ; preds = %_ZNKSt8functionIFvPvPN15user_propagator8callbackEEEclES0_S3_.exit, %if.end.i5
  %retval.0.i7 = phi i32 [ %6, %if.end.i5 ], [ 0, %_ZNKSt8functionIFvPvPN15user_propagator8callbackEEEclES0_S3_.exit ]
  %cmp = icmp ne i32 %retval.0.i, %retval.0.i7
  %cond = zext i1 %cmp to i32
  br label %return

return:                                           ; preds = %entry, %_ZNK6vectorIN11user_solver6solver9prop_infoELb1EjE4sizeEv.exit8
  %retval.0 = phi i32 [ %cond, %_ZNK6vectorIN11user_solver6solver9prop_infoELb1EjE4sizeEv.exit8 ], [ 0, %entry ]
  ret i32 %retval.0
}